target datalayout = "e-m:e-p270:32:32-p271:32:32-p272:64:64-i64:64-i128:128-f80:128-n8:16:32:64-S128"
target triple = "x86_64-pc-linux-gnu"

%union.UElement = type { ptr }

; Function Attrs: mustprogress uwtable
define i32 @uhash_hashUChars_77(ptr %0) #0 {
  %2 = alloca %union.UElement, align 8
  %3 = alloca ptr, align 8
  %4 = getelementptr inbounds nuw %union.UElement, ptr %2, i32 0, i32 0
  store ptr %0, ptr %4, align 8
  call void @llvm.lifetime.start.p0(i64 8, ptr %3) #9
  %5 = load ptr, ptr %2, align 8, !tbaa !27
  store ptr %5, ptr %3, align 8, !tbaa !50
  %6 = load ptr, ptr %3, align 8, !tbaa !50
  %7 = icmp eq ptr %6, null
  br i1 %7, label %8, label %9

8:                                                ; preds = %1
  br label %14

9:                                                ; preds = %1
  %10 = load ptr, ptr %3, align 8, !tbaa !50
  %11 = load ptr, ptr %3, align 8, !tbaa !50
  %12 = call i32 @u_strlen_77(ptr noundef %11)
  %13 = call i32 @ustr_hashUCharsN_77(ptr noundef %10, i32 noundef %12)
  br label %14

14:                                               ; preds = %9, %8
  %15 = phi i32 [ 0, %8 ], [ %13, %9 ]
  call void @llvm.lifetime.end.p0(i64 8, ptr %3) #9
  ret i32 %15
}