; Function Attrs: mustprogress uwtable
define i32 @uhash_hashUChars_77(ptr %0) local_unnamed_addr #0 {
  %2 = icmp eq ptr %0, null
  br i1 %2, label %6, label %3

3:                                                ; preds = %1
  %4 = tail call i32 @u_strlen_77(ptr noundef nonnull %0)
  %5 = tail call i32 @ustr_hashUCharsN_77(ptr noundef nonnull %0, i32 noundef %4)
  br label %6

6:                                                ; preds = %1, %3
  %7 = phi i32 [ %5, %3 ], [ 0, %1 ]
  ret i32 %7
}